target datalayout = "e-m:e-p270:32:32-p271:32:32-p272:64:64-i64:64-i128:128-f80:128-n8:16:32:64-S128"
target triple = "x86_64-pc-linux-gnu"

@.str = private unnamed_addr constant [1 x i8] zeroinitializer, align 1
@.str.1 = private unnamed_addr constant [15 x i8] c"/proc/self/exe\00", align 1

; Function Attrs: nounwind uwtable
define dso_local ptr @find_executable_path() #0 {
  %1 = alloca ptr, align 8
  %2 = alloca i32, align 4
  %3 = alloca ptr, align 8
  %4 = alloca i32, align 4
  %5 = alloca i32, align 4
  %6 = call i32 @get_executable_path_raw(ptr noundef null, i32 noundef 0, ptr noundef null)
  store i32 %6, ptr %2, align 4
  %7 = load i32, ptr %2, align 4
  %8 = icmp slt i32 %7, 0
  br i1 %8, label %9, label %10

9:                                                ; preds = %0
  store ptr @.str, ptr %1, align 8
  br label %74

10:                                               ; preds = %0
  %11 = load i32, ptr %2, align 4
  %12 = add i32 %11, 1
  %13 = zext i32 %12 to i64
  %14 = call noalias ptr @malloc(i64 noundef %13) #5
  store ptr %14, ptr %3, align 8
  %15 = load ptr, ptr %3, align 8
  %16 = load i32, ptr %2, align 4
  %17 = call i32 @get_executable_path_raw(ptr noundef %15, i32 noundef %16, ptr noundef null)
  %18 = load ptr, ptr %3, align 8
  %19 = load i32, ptr %2, align 4
  %20 = sext i32 %19 to i64
  %21 = getelementptr inbounds i8, ptr %18, i64 %20
  store i8 0, ptr %21, align 1
  store i32 0, ptr %4, align 4
  br label %22

22:                                               ; preds = %40, %10
  %23 = load i32, ptr %4, align 4
  %24 = load i32, ptr %2, align 4
  %25 = icmp slt i32 %23, %24
  br i1 %25, label %26, label %43

26:                                               ; preds = %22
  %27 = load ptr, ptr %3, align 8
  %28 = load i32, ptr %4, align 4
  %29 = sext i32 %28 to i64
  %30 = getelementptr inbounds i8, ptr %27, i64 %29
  %31 = load i8, ptr %30, align 1
  %32 = sext i8 %31 to i32
  %33 = icmp eq i32 92, %32
  br i1 %33, label %34, label %39

34:                                               ; preds = %26
  %35 = load ptr, ptr %3, align 8
  %36 = load i32, ptr %4, align 4
  %37 = sext i32 %36 to i64
  %38 = getelementptr inbounds i8, ptr %35, i64 %37
  store i8 47, ptr %38, align 1
  br label %39

39:                                               ; preds = %34, %26
  br label %40

40:                                               ; preds = %39
  %41 = load i32, ptr %4, align 4
  %42 = add nsw i32 %41, 1
  store i32 %42, ptr %4, align 4
  br label %22, !llvm.loop !7

43:                                               ; preds = %22
  %44 = load i32, ptr %2, align 4
  %45 = sub nsw i32 %44, 1
  store i32 %45, ptr %5, align 4
  br label %46

46:                                               ; preds = %65, %43
  %47 = load i32, ptr %5, align 4
  %48 = icmp sge i32 %47, 0
  br i1 %48, label %49, label %68

49:                                               ; preds = %46
  %50 = load ptr, ptr %3, align 8
  %51 = load i32, ptr %5, align 4
  %52 = sext i32 %51 to i64
  %53 = getelementptr inbounds i8, ptr %50, i64 %52
  %54 = load i8, ptr %53, align 1
  %55 = sext i8 %54 to i32
  switch i32 %55, label %63 [
    i32 47, label %56
    i32 92, label %56
  ]

56:                                               ; preds = %49, %49
  %57 = load ptr, ptr %3, align 8
  %58 = load i32, ptr %5, align 4
  %59 = add nsw i32 %58, 1
  %60 = sext i32 %59 to i64
  %61 = getelementptr inbounds i8, ptr %57, i64 %60
  store i8 0, ptr %61, align 1
  %62 = load ptr, ptr %3, align 8
  store ptr %62, ptr %1, align 8
  br label %74

63:                                               ; preds = %49
  br label %64

64:                                               ; preds = %63
  br label %65

65:                                               ; preds = %64
  %66 = load i32, ptr %5, align 4
  %67 = add nsw i32 %66, -1
  store i32 %67, ptr %5, align 4
  br label %46, !llvm.loop !9

68:                                               ; preds = %46
  %69 = load ptr, ptr %3, align 8
  %70 = load i32, ptr %2, align 4
  %71 = sext i32 %70 to i64
  %72 = getelementptr inbounds i8, ptr %69, i64 %71
  store i8 0, ptr %72, align 1
  %73 = load ptr, ptr %3, align 8
  store ptr %73, ptr %1, align 8
  br label %74

74:                                               ; preds = %68, %56, %9
  %75 = load ptr, ptr %1, align 8
  ret ptr %75
}

; Function Attrs: nounwind uwtable
define internal i32 @get_executable_path_raw(ptr noundef %0, i32 noundef %1, ptr noundef %2) #0 {
  %4 = alloca ptr, align 8
  %5 = alloca i32, align 4
  %6 = alloca ptr, align 8
  %7 = alloca [4096 x i8], align 16
  %8 = alloca ptr, align 8
  %9 = alloca i32, align 4
  %10 = alloca i32, align 4
  store ptr %0, ptr %4, align 8
  store i32 %1, ptr %5, align 4
  store ptr %2, ptr %6, align 8
  store ptr null, ptr %8, align 8
  store i32 -1, ptr %9, align 4
  br label %11

11:                                               ; preds = %3
  %12 = getelementptr inbounds [4096 x i8], ptr %7, i64 0, i64 0
  %13 = call ptr @realpath(ptr noundef @.str.1, ptr noundef %12) #6
  store ptr %13, ptr %8, align 8
  %14 = load ptr, ptr %8, align 8
  %15 = icmp ne ptr %14, null
  br i1 %15, label %17, label %16

16:                                               ; preds = %11
  br label %55

17:                                               ; preds = %11
  %18 = load ptr, ptr %8, align 8
  %19 = call i64 @strlen(ptr noundef %18) #7
  %20 = trunc i64 %19 to i32
  store i32 %20, ptr %9, align 4
  %21 = load i32, ptr %9, align 4
  %22 = load i32, ptr %5, align 4
  %23 = icmp sle i32 %21, %22
  br i1 %23, label %24, label %54

24:                                               ; preds = %17
  %25 = load ptr, ptr %4, align 8
  %26 = load ptr, ptr %8, align 8
  %27 = load i32, ptr %9, align 4
  %28 = sext i32 %27 to i64
  call void @llvm.memcpy.p0.p0.i64(ptr align 1 %25, ptr align 1 %26, i64 %28, i1 false)
  %29 = load ptr, ptr %6, align 8
  %30 = icmp ne ptr %29, null
  br i1 %30, label %31, label %53

31:                                               ; preds = %24
  %32 = load i32, ptr %9, align 4
  %33 = sub nsw i32 %32, 1
  store i32 %33, ptr %10, align 4
  br label %34

34:                                               ; preds = %49, %31
  %35 = load i32, ptr %10, align 4
  %36 = icmp sge i32 %35, 0
  br i1 %36, label %37, label %52

37:                                               ; preds = %34
  %38 = load ptr, ptr %4, align 8
  %39 = load i32, ptr %10, align 4
  %40 = sext i32 %39 to i64
  %41 = getelementptr inbounds i8, ptr %38, i64 %40
  %42 = load i8, ptr %41, align 1
  %43 = sext i8 %42 to i32
  %44 = icmp eq i32 %43, 47
  br i1 %44, label %45, label %48

45:                                               ; preds = %37
  %46 = load i32, ptr %10, align 4
  %47 = load ptr, ptr %6, align 8
  store i32 %46, ptr %47, align 4
  br label %52

48:                                               ; preds = %37
  br label %49

49:                                               ; preds = %48
  %50 = load i32, ptr %10, align 4
  %51 = add nsw i32 %50, -1
  store i32 %51, ptr %10, align 4
  br label %34, !llvm.loop !10

52:                                               ; preds = %45, %34
  br label %53

53:                                               ; preds = %52, %24
  br label %54

54:                                               ; preds = %53, %17
  br label %55

55:                                               ; preds = %54, %16
  %56 = load i32, ptr %9, align 4
  ret i32 %56
}

; Function Attrs: nounwind allocsize(0)
declare noalias ptr @malloc(i64 noundef) #1

; Function Attrs: nounwind
declare ptr @realpath(ptr noundef, ptr noundef) #2

; Function Attrs: nounwind willreturn memory(read)
declare i64 @strlen(ptr noundef) #3

; Function Attrs: nocallback nofree nounwind willreturn memory(argmem: readwrite)
declare void @llvm.memcpy.p0.p0.i64(ptr noalias nocapture writeonly, ptr noalias nocapture readonly, i64, i1 immarg) #4


!llvm.module.flags = !{!0, !1, !2, !3, !4, !5, !6}

!0 = !{i32 7, !"Dwarf Version", i32 3}
!1 = !{i32 2, !"Debug Info Version", i32 3}
!2 = !{i32 1, !"wchar_size", i32 4}
!3 = !{i32 8, !"PIC Level", i32 2}
!4 = !{i32 7, !"PIE Level", i32 2}
!5 = !{i32 7, !"uwtable", i32 2}
!6 = !{i32 7, !"frame-pointer", i32 2}
!7 = distinct !{!7, !8}
!8 = !{!"llvm.loop.mustprogress"}
!9 = distinct !{!9, !8}
!10 = distinct !{!10, !8}
